; Function Attrs: mustprogress nofree norecurse nounwind memory(readwrite, inaccessiblemem: none) uwtable
define internal fastcc void @_ZN3tbb6detail2d010raii_guardIZNS0_2d117concurrent_vectorINS1_6paddedINS3_11ets_elementISt6vectorISt10shared_ptrIN32pxrInternal_v0_24__pxrReserved__12_GLOBAL__N_120_DispatchingResolver6_CacheEESaISD_EEEELm128EEENS3_23cache_aligned_allocatorISH_EEE14create_segmentEPSt6atomicIPSH_EmmEUlvE0_ED2Ev(ptr nocapture noundef nonnull readonly align 8 dereferenceable(25) %0) unnamed_addr #17 align 2 personality ptr @__gxx_personality_v0 {
  %2 = getelementptr inbounds nuw i8, ptr %0, i64 24
  %3 = load i8, ptr %2, align 8
  %4 = trunc i8 %3 to i1
  br i1 %4, label %5, label %_ZZN3tbb6detail2d117concurrent_vectorINS0_2d06paddedINS1_11ets_elementISt6vectorISt10shared_ptrIN32pxrInternal_v0_24__pxrReserved__12_GLOBAL__N_120_DispatchingResolver6_CacheEESaISC_EEEELm128EEENS1_23cache_aligned_allocatorISG_EEE14create_segmentEPSt6atomicIPSG_EmmENKUlvE0_clEv.exit

5:                                                ; preds = %1
  %6 = getelementptr inbounds nuw i8, ptr %0, i64 8
  %7 = load ptr, ptr %6, align 8
  %8 = load ptr, ptr %0, align 8
  %9 = load ptr, ptr %8, align 8
  %10 = load ptr, ptr %7, align 8
  %11 = ptrtoint ptr %10 to i64
  %12 = cmpxchg ptr %9, i64 0, i64 %11 seq_cst seq_cst, align 8
  %13 = extractvalue { i64, i1 } %12, 1
  br i1 %13, label %14, label %_ZZN3tbb6detail2d117concurrent_vectorINS0_2d06paddedINS1_11ets_elementISt6vectorISt10shared_ptrIN32pxrInternal_v0_24__pxrReserved__12_GLOBAL__N_120_DispatchingResolver6_CacheEESaISC_EEEELm128EEENS1_23cache_aligned_allocatorISG_EEE14create_segmentEPSt6atomicIPSG_EmmENKUlvE0_clEv.exit

14:                                               ; preds = %5
  %15 = load ptr, ptr %0, align 8
  %16 = load ptr, ptr %15, align 8
  %17 = getelementptr inbounds nuw i8, ptr %7, i64 24
  %18 = icmp eq ptr %16, %17
  br i1 %18, label %.lr.ph.preheader.i, label %19

19:                                               ; preds = %14
  %20 = getelementptr inbounds nuw i8, ptr %0, i64 16
  %21 = load ptr, ptr %20, align 8
  %22 = load i64, ptr %21, align 8
  %23 = icmp ugt i64 %22, 1
  br i1 %23, label %.lr.ph.preheader.i, label %_ZZN3tbb6detail2d117concurrent_vectorINS0_2d06paddedINS1_11ets_elementISt6vectorISt10shared_ptrIN32pxrInternal_v0_24__pxrReserved__12_GLOBAL__N_120_DispatchingResolver6_CacheEESaISC_EEEELm128EEENS1_23cache_aligned_allocatorISG_EEE14create_segmentEPSt6atomicIPSG_EmmENKUlvE0_clEv.exit

.lr.ph.preheader.i:                               ; preds = %19, %14
  %24 = phi i64 [ %22, %19 ], [ 3, %14 ]
  br label %.lr.ph.i

.lr.ph.i:                                         ; preds = %.lr.ph.i, %.lr.ph.preheader.i
  %.04.i = phi i64 [ %30, %.lr.ph.i ], [ 1, %.lr.ph.preheader.i ]
  %25 = load ptr, ptr %0, align 8
  %26 = load ptr, ptr %25, align 8
  %27 = getelementptr inbounds %"struct.std::atomic.30", ptr %26, i64 %.04.i
  %28 = load ptr, ptr %7, align 8
  %29 = ptrtoint ptr %28 to i64
  store atomic i64 %29, ptr %27 release, align 8
  %30 = add nuw i64 %.04.i, 1
  %exitcond.not.i = icmp eq i64 %30, %24
  br i1 %exitcond.not.i, label %_ZZN3tbb6detail2d117concurrent_vectorINS0_2d06paddedINS1_11ets_elementISt6vectorISt10shared_ptrIN32pxrInternal_v0_24__pxrReserved__12_GLOBAL__N_120_DispatchingResolver6_CacheEESaISC_EEEELm128EEENS1_23cache_aligned_allocatorISG_EEE14create_segmentEPSt6atomicIPSG_EmmENKUlvE0_clEv.exit, label %.lr.ph.i, !llvm.loop !214

_ZZN3tbb6detail2d117concurrent_vectorINS0_2d06paddedINS1_11ets_elementISt6vectorISt10shared_ptrIN32pxrInternal_v0_24__pxrReserved__12_GLOBAL__N_120_DispatchingResolver6_CacheEESaISC_EEEELm128EEENS1_23cache_aligned_allocatorISG_EEE14create_segmentEPSt6atomicIPSG_EmmENKUlvE0_clEv.exit: ; preds = %.lr.ph.i, %19, %5, %1
  ret void
}